target datalayout = "e-m:e-p270:32:32-p271:32:32-p272:64:64-i64:64-i128:128-f80:128-n8:16:32:64-S128"
target triple = "x86_64-pc-linux-gnu"

%"class.ncnn::Net" = type { ptr, %"class.ncnn::Option", ptr }
%"class.ncnn::Option" = type { i8, i32, ptr, ptr, i32, i8, i8, i8, i8, i8, i8, i8, i8, i8, i8, i8, i8, i8, i8, i8, i8, i8, i8, i8, i8, i32, i8, i8, i8, i8, i8, i8, i8, i8, i8, i8, i8, i8 }
%"class.ncnn::NetPrivate" = type { ptr, %"class.std::vector", %"class.std::vector.0", %"class.std::vector.5", %"class.std::vector.5", %"class.std::vector.10", %"class.std::vector.10", %"class.std::vector.15", %"class.std::vector.20", ptr, ptr }
%"class.std::vector" = type { %"struct.std::_Vector_base" }
%"struct.std::_Vector_base" = type { %"struct.std::_Vector_base<ncnn::Blob, std::allocator<ncnn::Blob>>::_Vector_impl" }
%"struct.std::_Vector_base<ncnn::Blob, std::allocator<ncnn::Blob>>::_Vector_impl" = type { %"struct.std::_Vector_base<ncnn::Blob, std::allocator<ncnn::Blob>>::_Vector_impl_data" }
%"struct.std::_Vector_base<ncnn::Blob, std::allocator<ncnn::Blob>>::_Vector_impl_data" = type { ptr, ptr, ptr }
%"class.std::vector.0" = type { %"struct.std::_Vector_base.1" }
%"struct.std::_Vector_base.1" = type { %"struct.std::_Vector_base<ncnn::Layer *, std::allocator<ncnn::Layer *>>::_Vector_impl" }
%"struct.std::_Vector_base<ncnn::Layer *, std::allocator<ncnn::Layer *>>::_Vector_impl" = type { %"struct.std::_Vector_base<ncnn::Layer *, std::allocator<ncnn::Layer *>>::_Vector_impl_data" }
%"struct.std::_Vector_base<ncnn::Layer *, std::allocator<ncnn::Layer *>>::_Vector_impl_data" = type { ptr, ptr, ptr }
%"class.std::vector.5" = type { %"struct.std::_Vector_base.6" }
%"struct.std::_Vector_base.6" = type { %"struct.std::_Vector_base<int, std::allocator<int>>::_Vector_impl" }
%"struct.std::_Vector_base<int, std::allocator<int>>::_Vector_impl" = type { %"struct.std::_Vector_base<int, std::allocator<int>>::_Vector_impl_data" }
%"struct.std::_Vector_base<int, std::allocator<int>>::_Vector_impl_data" = type { ptr, ptr, ptr }
%"class.std::vector.10" = type { %"struct.std::_Vector_base.11" }
%"struct.std::_Vector_base.11" = type { %"struct.std::_Vector_base<const char *, std::allocator<const char *>>::_Vector_impl" }
%"struct.std::_Vector_base<const char *, std::allocator<const char *>>::_Vector_impl" = type { %"struct.std::_Vector_base<const char *, std::allocator<const char *>>::_Vector_impl_data" }
%"struct.std::_Vector_base<const char *, std::allocator<const char *>>::_Vector_impl_data" = type { ptr, ptr, ptr }
%"class.std::vector.15" = type { %"struct.std::_Vector_base.16" }
%"struct.std::_Vector_base.16" = type { %"struct.std::_Vector_base<ncnn::custom_layer_registry_entry, std::allocator<ncnn::custom_layer_registry_entry>>::_Vector_impl" }
%"struct.std::_Vector_base<ncnn::custom_layer_registry_entry, std::allocator<ncnn::custom_layer_registry_entry>>::_Vector_impl" = type { %"struct.std::_Vector_base<ncnn::custom_layer_registry_entry, std::allocator<ncnn::custom_layer_registry_entry>>::_Vector_impl_data" }
%"struct.std::_Vector_base<ncnn::custom_layer_registry_entry, std::allocator<ncnn::custom_layer_registry_entry>>::_Vector_impl_data" = type { ptr, ptr, ptr }
%"class.std::vector.20" = type { %"struct.std::_Vector_base.21" }
%"struct.std::_Vector_base.21" = type { %"struct.std::_Vector_base<ncnn::overwrite_builtin_layer_registry_entry, std::allocator<ncnn::overwrite_builtin_layer_registry_entry>>::_Vector_impl" }
%"struct.std::_Vector_base<ncnn::overwrite_builtin_layer_registry_entry, std::allocator<ncnn::overwrite_builtin_layer_registry_entry>>::_Vector_impl" = type { %"struct.std::_Vector_base<ncnn::overwrite_builtin_layer_registry_entry, std::allocator<ncnn::overwrite_builtin_layer_registry_entry>>::_Vector_impl_data" }
%"struct.std::_Vector_base<ncnn::overwrite_builtin_layer_registry_entry, std::allocator<ncnn::overwrite_builtin_layer_registry_entry>>::_Vector_impl_data" = type { ptr, ptr, ptr }
%"class.ncnn::Layer" = type { ptr, i8, i8, i8, i8, i8, i8, i8, i8, i8, i8, i8, i8, i8, i8, i8, i8, i8, i8, i8, i8, i32, ptr, i32, %"class.std::__cxx11::basic_string", %"class.std::__cxx11::basic_string", %"class.std::vector.5", %"class.std::vector.5", %"class.std::vector.28", %"class.std::vector.28" }
%"class.std::__cxx11::basic_string" = type { %"struct.std::__cxx11::basic_string<char>::_Alloc_hider", i64, %union.anon }
%"struct.std::__cxx11::basic_string<char>::_Alloc_hider" = type { ptr }
%union.anon = type { i64, [8 x i8] }
%"class.std::vector.28" = type { %"struct.std::_Vector_base.29" }
%"struct.std::_Vector_base.29" = type { %"struct.std::_Vector_base<ncnn::Mat, std::allocator<ncnn::Mat>>::_Vector_impl" }
%"struct.std::_Vector_base<ncnn::Mat, std::allocator<ncnn::Mat>>::_Vector_impl" = type { %"struct.std::_Vector_base<ncnn::Mat, std::allocator<ncnn::Mat>>::_Vector_impl_data" }
%"struct.std::_Vector_base<ncnn::Mat, std::allocator<ncnn::Mat>>::_Vector_impl_data" = type { ptr, ptr, ptr }
%"struct.ncnn::overwrite_builtin_layer_registry_entry" = type { i32, ptr, ptr, ptr }

; Function Attrs: mustprogress nounwind uwtable
define linkonce_odr hidden noundef nonnull align 8 dereferenceable(32) ptr @_ZNSt6vectorIN4ncnn38overwrite_builtin_layer_registry_entryESaIS1_EEixEm(ptr noundef nonnull align 8 dereferenceable(24) %0, i64 noundef %1) #0 comdat align 2 {
  %3 = alloca ptr, align 8
  %4 = alloca i64, align 8
  store ptr %0, ptr %3, align 8, !tbaa !96
  store i64 %1, ptr %4, align 8, !tbaa !18
  %5 = load ptr, ptr %3, align 8
  %6 = getelementptr inbounds nuw %"struct.std::_Vector_base.21", ptr %5, i32 0, i32 0
  %7 = getelementptr inbounds nuw %"struct.std::_Vector_base<ncnn::overwrite_builtin_layer_registry_entry, std::allocator<ncnn::overwrite_builtin_layer_registry_entry>>::_Vector_impl_data", ptr %6, i32 0, i32 0
  %8 = load ptr, ptr %7, align 8, !tbaa !171
  %9 = load i64, ptr %4, align 8, !tbaa !18
  %10 = getelementptr inbounds nuw %"struct.ncnn::overwrite_builtin_layer_registry_entry", ptr %8, i64 %9
  ret ptr %10
}

; Function Attrs: mustprogress nounwind uwtable
define linkonce_odr hidden noundef i64 @_ZNKSt6vectorIN4ncnn38overwrite_builtin_layer_registry_entryESaIS1_EE4sizeEv(ptr noundef nonnull align 8 dereferenceable(24) %0) #0 comdat align 2 {
  %2 = alloca ptr, align 8
  store ptr %0, ptr %2, align 8, !tbaa !96
  %3 = load ptr, ptr %2, align 8
  %4 = getelementptr inbounds nuw %"struct.std::_Vector_base.21", ptr %3, i32 0, i32 0
  %5 = getelementptr inbounds nuw %"struct.std::_Vector_base<ncnn::overwrite_builtin_layer_registry_entry, std::allocator<ncnn::overwrite_builtin_layer_registry_entry>>::_Vector_impl_data", ptr %4, i32 0, i32 1
  %6 = load ptr, ptr %5, align 8, !tbaa !172
  %7 = getelementptr inbounds nuw %"struct.std::_Vector_base.21", ptr %3, i32 0, i32 0
  %8 = getelementptr inbounds nuw %"struct.std::_Vector_base<ncnn::overwrite_builtin_layer_registry_entry, std::allocator<ncnn::overwrite_builtin_layer_registry_entry>>::_Vector_impl_data", ptr %7, i32 0, i32 0
  %9 = load ptr, ptr %8, align 8, !tbaa !171
  %10 = ptrtoint ptr %6 to i64
  %11 = ptrtoint ptr %9 to i64
  %12 = sub i64 %10, %11
  %13 = sdiv exact i64 %12, 32
  ret i64 %13
}

; Function Attrs: mustprogress uwtable
define hidden noundef ptr @_ZN4ncnn3Net30create_overwrite_builtin_layerEi(ptr noundef nonnull align 8 dereferenceable(80) %0, i32 noundef %1) unnamed_addr #1 align 2 {
  %3 = alloca ptr, align 8
  %4 = alloca ptr, align 8
  %5 = alloca i32, align 4
  %6 = alloca i32, align 4
  %7 = alloca i64, align 8
  %8 = alloca i64, align 8
  %9 = alloca i32, align 4
  %10 = alloca ptr, align 8
  %11 = alloca ptr, align 8
  store ptr %0, ptr %4, align 8, !tbaa !4
  store i32 %1, ptr %5, align 4, !tbaa !26
  %12 = load ptr, ptr %4, align 8
  call void @llvm.lifetime.start.p0(i64 4, ptr %6) #16
  store i32 -1, ptr %6, align 4, !tbaa !26
  call void @llvm.lifetime.start.p0(i64 8, ptr %7) #16
  %13 = getelementptr inbounds nuw %"class.ncnn::Net", ptr %12, i32 0, i32 2
  %14 = load ptr, ptr %13, align 8, !tbaa !11
  %15 = getelementptr inbounds nuw %"class.ncnn::NetPrivate", ptr %14, i32 0, i32 8
  %16 = call noundef i64 @_ZNKSt6vectorIN4ncnn38overwrite_builtin_layer_registry_entryESaIS1_EE4sizeEv(ptr noundef nonnull align 8 dereferenceable(24) %15) #16
  store i64 %16, ptr %7, align 8, !tbaa !18
  call void @llvm.lifetime.start.p0(i64 8, ptr %8) #16
  store i64 0, ptr %8, align 8, !tbaa !18
  br label %17

17:                                               ; preds = %36, %2
  %18 = load i64, ptr %8, align 8, !tbaa !18
  %19 = load i64, ptr %7, align 8, !tbaa !18
  %20 = icmp ult i64 %18, %19
  br i1 %20, label %22, label %21

21:                                               ; preds = %17
  store i32 2, ptr %9, align 4
  br label %39

22:                                               ; preds = %17
  %23 = getelementptr inbounds nuw %"class.ncnn::Net", ptr %12, i32 0, i32 2
  %24 = load ptr, ptr %23, align 8, !tbaa !11
  %25 = getelementptr inbounds nuw %"class.ncnn::NetPrivate", ptr %24, i32 0, i32 8
  %26 = load i64, ptr %8, align 8, !tbaa !18
  %27 = call noundef nonnull align 8 dereferenceable(32) ptr @_ZNSt6vectorIN4ncnn38overwrite_builtin_layer_registry_entryESaIS1_EEixEm(ptr noundef nonnull align 8 dereferenceable(24) %25, i64 noundef %26) #16
  %28 = getelementptr inbounds nuw %"struct.ncnn::overwrite_builtin_layer_registry_entry", ptr %27, i32 0, i32 0
  %29 = load i32, ptr %28, align 8, !tbaa !46
  %30 = load i32, ptr %5, align 4, !tbaa !26
  %31 = icmp eq i32 %29, %30
  br i1 %31, label %32, label %35

32:                                               ; preds = %22
  %33 = load i64, ptr %8, align 8, !tbaa !18
  %34 = trunc i64 %33 to i32
  store i32 %34, ptr %6, align 4, !tbaa !26
  store i32 2, ptr %9, align 4
  br label %39

35:                                               ; preds = %22
  br label %36

36:                                               ; preds = %35
  %37 = load i64, ptr %8, align 8, !tbaa !18
  %38 = add i64 %37, 1
  store i64 %38, ptr %8, align 8, !tbaa !18
  br label %17, !llvm.loop !48

39:                                               ; preds = %32, %21
  call void @llvm.lifetime.end.p0(i64 8, ptr %8) #16
  br label %40

40:                                               ; preds = %39
  %41 = load i32, ptr %6, align 4, !tbaa !26
  %42 = icmp eq i32 %41, -1
  br i1 %42, label %43, label %44

43:                                               ; preds = %40
  store ptr null, ptr %3, align 8
  store i32 1, ptr %9, align 4
  br label %72

44:                                               ; preds = %40
  call void @llvm.lifetime.start.p0(i64 8, ptr %10) #16
  %45 = getelementptr inbounds nuw %"class.ncnn::Net", ptr %12, i32 0, i32 2
  %46 = load ptr, ptr %45, align 8, !tbaa !11
  %47 = getelementptr inbounds nuw %"class.ncnn::NetPrivate", ptr %46, i32 0, i32 8
  %48 = load i32, ptr %6, align 4, !tbaa !26
  %49 = sext i32 %48 to i64
  %50 = call noundef nonnull align 8 dereferenceable(32) ptr @_ZNSt6vectorIN4ncnn38overwrite_builtin_layer_registry_entryESaIS1_EEixEm(ptr noundef nonnull align 8 dereferenceable(24) %47, i64 noundef %49) #16
  %51 = getelementptr inbounds nuw %"struct.ncnn::overwrite_builtin_layer_registry_entry", ptr %50, i32 0, i32 1
  %52 = load ptr, ptr %51, align 8, !tbaa !49
  store ptr %52, ptr %10, align 8, !tbaa !28
  %53 = load ptr, ptr %10, align 8, !tbaa !28
  %54 = icmp ne ptr %53, null
  br i1 %54, label %56, label %55

55:                                               ; preds = %44
  store ptr null, ptr %3, align 8
  store i32 1, ptr %9, align 4
  br label %71

56:                                               ; preds = %44
  call void @llvm.lifetime.start.p0(i64 8, ptr %11) #16
  %57 = load ptr, ptr %10, align 8, !tbaa !28
  %58 = getelementptr inbounds nuw %"class.ncnn::Net", ptr %12, i32 0, i32 2
  %59 = load ptr, ptr %58, align 8, !tbaa !11
  %60 = getelementptr inbounds nuw %"class.ncnn::NetPrivate", ptr %59, i32 0, i32 8
  %61 = load i32, ptr %6, align 4, !tbaa !26
  %62 = sext i32 %61 to i64
  %63 = call noundef nonnull align 8 dereferenceable(32) ptr @_ZNSt6vectorIN4ncnn38overwrite_builtin_layer_registry_entryESaIS1_EEixEm(ptr noundef nonnull align 8 dereferenceable(24) %60, i64 noundef %62) #16
  %64 = getelementptr inbounds nuw %"struct.ncnn::overwrite_builtin_layer_registry_entry", ptr %63, i32 0, i32 3
  %65 = load ptr, ptr %64, align 8, !tbaa !50
  %66 = call noundef ptr %57(ptr noundef %65)
  store ptr %66, ptr %11, align 8, !tbaa !30
  %67 = load i32, ptr %5, align 4, !tbaa !26
  %68 = load ptr, ptr %11, align 8, !tbaa !30
  %69 = getelementptr inbounds nuw %"class.ncnn::Layer", ptr %68, i32 0, i32 23
  store i32 %67, ptr %69, align 8, !tbaa !32
  %70 = load ptr, ptr %11, align 8, !tbaa !30
  store ptr %70, ptr %3, align 8
  store i32 1, ptr %9, align 4
  call void @llvm.lifetime.end.p0(i64 8, ptr %11) #16
  br label %71

71:                                               ; preds = %56, %55
  call void @llvm.lifetime.end.p0(i64 8, ptr %10) #16
  br label %72

72:                                               ; preds = %71, %43
  call void @llvm.lifetime.end.p0(i64 8, ptr %7) #16
  call void @llvm.lifetime.end.p0(i64 4, ptr %6) #16
  %73 = load ptr, ptr %3, align 8
  ret ptr %73
}