; Function Attrs: mustprogress uwtable
define hidden noundef ptr @_ZN4ncnn3Net30create_overwrite_builtin_layerEi(ptr noundef nonnull readonly align 8 captures(none) dereferenceable(80) %0, i32 noundef %1) unnamed_addr #2 align 2 {
  %3 = getelementptr inbounds nuw i8, ptr %0, i64 72
  %4 = load ptr, ptr %3, align 8, !tbaa !7
  %5 = getelementptr inbounds nuw i8, ptr %4, i64 176
  %6 = getelementptr inbounds nuw i8, ptr %4, i64 184
  %7 = load ptr, ptr %6, align 8, !tbaa !42
  %8 = load ptr, ptr %5, align 8, !tbaa !45
  %.not21 = icmp eq ptr %7, %8
  br i1 %.not21, label %.thread, label %.lr.ph.preheader

.lr.ph.preheader:                                 ; preds = %2
  %9 = ptrtoint ptr %7 to i64
  %10 = ptrtoint ptr %8 to i64
  %11 = sub i64 %9, %10
  %12 = ashr exact i64 %11, 5
  %umax = tail call i64 @llvm.umax.i64(i64 %12, i64 1)
  br label %.lr.ph

.lr.ph:                                           ; preds = %.lr.ph.preheader, %16
  %.01620 = phi i64 [ %17, %16 ], [ 0, %.lr.ph.preheader ]
  %13 = getelementptr inbounds nuw %"struct.ncnn::overwrite_builtin_layer_registry_entry", ptr %8, i64 %.01620
  %14 = load i32, ptr %13, align 8, !tbaa !46
  %15 = icmp eq i32 %14, %1
  br i1 %15, label %18, label %16

16:                                               ; preds = %.lr.ph
  %17 = add nuw i64 %.01620, 1
  %exitcond.not = icmp eq i64 %17, %umax
  br i1 %exitcond.not, label %.thread, label %.lr.ph, !llvm.loop !48

18:                                               ; preds = %.lr.ph
  %19 = and i64 %.01620, 4294967295
  %20 = icmp eq i64 %19, 4294967295
  br i1 %20, label %.thread, label %21

21:                                               ; preds = %18
  %sext = shl i64 %.01620, 32
  %22 = ashr exact i64 %sext, 27
  %23 = getelementptr inbounds nuw i8, ptr %8, i64 %22
  %24 = getelementptr inbounds nuw i8, ptr %23, i64 8
  %25 = load ptr, ptr %24, align 8, !tbaa !49
  %.not = icmp eq ptr %25, null
  br i1 %.not, label %.thread, label %26

26:                                               ; preds = %21
  %27 = getelementptr inbounds nuw i8, ptr %23, i64 24
  %28 = load ptr, ptr %27, align 8, !tbaa !50
  %29 = tail call noundef ptr %25(ptr noundef %28)
  %30 = getelementptr inbounds nuw i8, ptr %29, i64 40
  store i32 %1, ptr %30, align 8, !tbaa !27
  br label %.thread

.thread:                                          ; preds = %16, %2, %26, %21, %18
  %.0 = phi ptr [ null, %18 ], [ %29, %26 ], [ null, %21 ], [ null, %2 ], [ null, %16 ]
  ret ptr %.0
}